target datalayout = "e-m:e-p270:32:32-p271:32:32-p272:64:64-i64:64-i128:128-f80:128-n8:16:32:64-S128"
target triple = "x86_64-pc-linux-gnu"

%struct.SDL_AtomicInt = type { i32 }
%struct.SDL_DisplayMode = type { i32, i32, i32, i32, float, float, i32, i32, ptr }
%struct.SDL_HDROutputProperties = type { float, float }
%struct.SDL_Rect = type { i32, i32, i32, i32 }
%struct.SDL_VideoDevice = type { ptr, ptr, ptr, ptr, ptr, ptr, ptr, ptr, ptr, ptr, ptr, ptr, ptr, ptr, ptr, ptr, ptr, ptr, ptr, ptr, ptr, ptr, ptr, ptr, ptr, ptr, ptr, ptr, ptr, ptr, ptr, ptr, ptr, ptr, ptr, ptr, ptr, ptr, ptr, ptr, ptr, ptr, ptr, ptr, ptr, ptr, ptr, ptr, ptr, ptr, ptr, ptr, ptr, ptr, ptr, ptr, ptr, ptr, ptr, ptr, ptr, ptr, ptr, ptr, ptr, ptr, ptr, ptr, ptr, ptr, ptr, ptr, ptr, ptr, ptr, ptr, ptr, ptr, ptr, ptr, ptr, ptr, ptr, ptr, ptr, ptr, ptr, ptr, ptr, ptr, ptr, ptr, ptr, ptr, ptr, ptr, ptr, i64, i8, i8, i8, ptr, i32, ptr, %struct.SDL_Rect, ptr, ptr, i32, ptr, ptr, ptr, ptr, i64, ptr, i8, i32, i32, %struct.anon, ptr, ptr, ptr, ptr, ptr, ptr, %struct.SDL_AtomicInt, %struct.SDL_AtomicInt, i8, %struct.anon.0, ptr, ptr, ptr, ptr, ptr }
%struct.anon = type { i32, i32, i32, i32, i32, i32, i32, i32, i32, i32, i32, i32, i32, i32, i32, i32, i32, i32, i32, i32, i32, i32, i32, i32, i32, i32, i32, i32, i32, [256 x i8], ptr }
%struct.anon.0 = type { ptr, ptr, i32, [256 x i8], ptr }
%struct.SDL_VideoDisplay = type { i32, ptr, i32, i32, ptr, %struct.SDL_DisplayMode, ptr, i32, i32, float, %struct.SDL_HDROutputProperties, i8, ptr, ptr, i32, ptr }

@.str.1 = private unnamed_addr constant [41 x i8] c"Video subsystem has not been initialized\00", align 1
@_this = internal global ptr null, align 8
@.str.24 = private unnamed_addr constant [32 x i8] c"That operation is not supported\00", align 1

; Function Attrs: nounwind uwtable
define hidden zeroext i1 @SDL_UninitializedVideo() #0 {
  %1 = call zeroext i1 (ptr, ...) @SDL_SetError_REAL(ptr noundef @.str.1)
  ret i1 %1
}

; Function Attrs: nounwind uwtable
define hidden zeroext i1 @SDL_EnableScreenSaver_REAL() #0 {
  %1 = alloca i1, align 1
  %2 = load ptr, ptr @_this, align 8
  %3 = icmp ne ptr %2, null
  br i1 %3, label %6, label %4

4:                                                ; preds = %0
  %5 = call zeroext i1 @SDL_UninitializedVideo()
  store i1 %5, ptr %1, align 1
  br label %27

6:                                                ; preds = %0
  %7 = load ptr, ptr @_this, align 8
  %8 = getelementptr inbounds nuw %struct.SDL_VideoDevice, ptr %7, i32 0, i32 100
  %9 = load i8, ptr %8, align 2, !range !5, !noundef !6
  %10 = trunc i8 %9 to i1
  br i1 %10, label %12, label %11

11:                                               ; preds = %6
  store i1 true, ptr %1, align 1
  br label %27

12:                                               ; preds = %6
  %13 = load ptr, ptr @_this, align 8
  %14 = getelementptr inbounds nuw %struct.SDL_VideoDevice, ptr %13, i32 0, i32 100
  store i8 0, ptr %14, align 2
  %15 = load ptr, ptr @_this, align 8
  %16 = getelementptr inbounds nuw %struct.SDL_VideoDevice, ptr %15, i32 0, i32 73
  %17 = load ptr, ptr %16, align 8
  %18 = icmp ne ptr %17, null
  br i1 %18, label %19, label %25

19:                                               ; preds = %12
  %20 = load ptr, ptr @_this, align 8
  %21 = getelementptr inbounds nuw %struct.SDL_VideoDevice, ptr %20, i32 0, i32 73
  %22 = load ptr, ptr %21, align 8
  %23 = load ptr, ptr @_this, align 8
  %24 = call zeroext i1 %22(ptr noundef %23)
  store i1 %24, ptr %1, align 1
  br label %27

25:                                               ; preds = %12
  %26 = call zeroext i1 (ptr, ...) @SDL_SetError_REAL(ptr noundef @.str.24)
  store i1 %26, ptr %1, align 1
  br label %27

27:                                               ; preds = %25, %19, %11, %4
  %28 = load i1, ptr %1, align 1
  ret i1 %28
}

; Function Attrs: nounwind uwtable
define hidden void @SDL_VideoQuit() #0 {
  %1 = alloca i32, align 4
  %2 = alloca i32, align 4
  %3 = alloca ptr, align 8
  call void @llvm.lifetime.start.p0(i64 4, ptr %1) #10
  %4 = load ptr, ptr @_this, align 8
  %5 = icmp ne ptr %4, null
  br i1 %5, label %7, label %6

6:                                                ; preds = %0
  store i32 1, ptr %2, align 4
  br label %65

7:                                                ; preds = %0
  call void @SDL_QuitTouch()
  call void @SDL_QuitMouse()
  call void @SDL_QuitKeyboard()
  call void @SDL_QuitSubSystem_REAL(i32 noundef 16384)
  %8 = call zeroext i1 @SDL_EnableScreenSaver_REAL()
  br label %9

9:                                                ; preds = %14, %7
  %10 = load ptr, ptr @_this, align 8
  %11 = getelementptr inbounds nuw %struct.SDL_VideoDevice, ptr %10, i32 0, i32 105
  %12 = load ptr, ptr %11, align 8
  %13 = icmp ne ptr %12, null
  br i1 %13, label %14, label %18

14:                                               ; preds = %9
  %15 = load ptr, ptr @_this, align 8
  %16 = getelementptr inbounds nuw %struct.SDL_VideoDevice, ptr %15, i32 0, i32 105
  %17 = load ptr, ptr %16, align 8
  call void @SDL_DestroyWindow_REAL(ptr noundef %17)
  br label %9, !llvm.loop !11

18:                                               ; preds = %9
  %19 = load ptr, ptr @_this, align 8
  %20 = getelementptr inbounds nuw %struct.SDL_VideoDevice, ptr %19, i32 0, i32 2
  %21 = load ptr, ptr %20, align 8
  %22 = load ptr, ptr @_this, align 8
  call void %21(ptr noundef %22)
  %23 = load ptr, ptr @_this, align 8
  %24 = getelementptr inbounds nuw %struct.SDL_VideoDevice, ptr %23, i32 0, i32 102
  %25 = load i32, ptr %24, align 8
  store i32 %25, ptr %1, align 4
  br label %26

26:                                               ; preds = %30, %18
  %27 = load i32, ptr %1, align 4
  %28 = add nsw i32 %27, -1
  store i32 %28, ptr %1, align 4
  %29 = icmp ne i32 %27, 0
  br i1 %29, label %30, label %41

30:                                               ; preds = %26
  call void @llvm.lifetime.start.p0(i64 8, ptr %3) #10
  %31 = load ptr, ptr @_this, align 8
  %32 = getelementptr inbounds nuw %struct.SDL_VideoDevice, ptr %31, i32 0, i32 103
  %33 = load ptr, ptr %32, align 8
  %34 = load i32, ptr %1, align 4
  %35 = sext i32 %34 to i64
  %36 = getelementptr inbounds ptr, ptr %33, i64 %35
  %37 = load ptr, ptr %36, align 8
  store ptr %37, ptr %3, align 8
  %38 = load ptr, ptr %3, align 8
  %39 = getelementptr inbounds nuw %struct.SDL_VideoDisplay, ptr %38, i32 0, i32 0
  %40 = load i32, ptr %39, align 8
  call void @SDL_DelVideoDisplay(i32 noundef %40, i1 noundef zeroext false)
  call void @llvm.lifetime.end.p0(i64 8, ptr %3) #10
  br label %26, !llvm.loop !12

41:                                               ; preds = %26
  br label %42

42:                                               ; preds = %41
  br label %43

43:                                               ; preds = %42
  br label %44

44:                                               ; preds = %43
  %45 = load ptr, ptr @_this, align 8
  %46 = getelementptr inbounds nuw %struct.SDL_VideoDevice, ptr %45, i32 0, i32 103
  %47 = load ptr, ptr %46, align 8
  call void @SDL_free_REAL(ptr noundef %47)
  %48 = load ptr, ptr @_this, align 8
  %49 = getelementptr inbounds nuw %struct.SDL_VideoDevice, ptr %48, i32 0, i32 103
  store ptr null, ptr %49, align 8
  call void @SDL_CancelClipboardData(i32 noundef 0)
  %50 = load ptr, ptr @_this, align 8
  %51 = getelementptr inbounds nuw %struct.SDL_VideoDevice, ptr %50, i32 0, i32 113
  %52 = load ptr, ptr %51, align 8
  %53 = icmp ne ptr %52, null
  br i1 %53, label %54, label %60

54:                                               ; preds = %44
  %55 = load ptr, ptr @_this, align 8
  %56 = getelementptr inbounds nuw %struct.SDL_VideoDevice, ptr %55, i32 0, i32 113
  %57 = load ptr, ptr %56, align 8
  call void @SDL_free_REAL(ptr noundef %57)
  %58 = load ptr, ptr @_this, align 8
  %59 = getelementptr inbounds nuw %struct.SDL_VideoDevice, ptr %58, i32 0, i32 113
  store ptr null, ptr %59, align 8
  br label %60

60:                                               ; preds = %54, %44
  %61 = load ptr, ptr @_this, align 8
  %62 = getelementptr inbounds nuw %struct.SDL_VideoDevice, ptr %61, i32 0, i32 132
  %63 = load ptr, ptr %62, align 8
  %64 = load ptr, ptr @_this, align 8
  call void %63(ptr noundef %64)
  store ptr null, ptr @_this, align 8
  call void @SDL_QuitPen()
  store i32 0, ptr %2, align 4
  br label %65

65:                                               ; preds = %60, %6
  call void @llvm.lifetime.end.p0(i64 4, ptr %1) #10
  %66 = load i32, ptr %2, align 4
  switch i32 %66, label %68 [
    i32 0, label %67
    i32 1, label %67
  ]

67:                                               ; preds = %65, %65
  ret void

68:                                               ; preds = %65
  unreachable
}