; Function Attrs: nounwind uwtable
define hidden void @SDL_VideoQuit() local_unnamed_addr #0 {
  %1 = load ptr, ptr @_this, align 8
  %.not = icmp eq ptr %1, null
  br i1 %.not, label %51, label %2

2:                                                ; preds = %0
  tail call void @SDL_QuitTouch() #19
  tail call void @SDL_QuitMouse() #19
  tail call void @SDL_QuitKeyboard() #19
  tail call void @SDL_QuitSubSystem_REAL(i32 noundef 16384) #19
  %3 = load ptr, ptr @_this, align 8
  %.not.i = icmp eq ptr %3, null
  br i1 %.not.i, label %4, label %6

4:                                                ; preds = %2
  %5 = tail call zeroext i1 (ptr, ...) @SDL_SetError_REAL(ptr noundef nonnull @.str.1) #19
  br label %SDL_EnableScreenSaver_REAL.exit

6:                                                ; preds = %2
  %7 = getelementptr inbounds nuw i8, ptr %3, i64 786
  %8 = load i8, ptr %7, align 2, !range !6, !noundef !7
  %9 = trunc nuw i8 %8 to i1
  br i1 %9, label %10, label %SDL_EnableScreenSaver_REAL.exit

10:                                               ; preds = %6
  store i8 0, ptr %7, align 2
  %11 = getelementptr inbounds nuw i8, ptr %3, i64 584
  %12 = load ptr, ptr %11, align 8
  %.not3.i = icmp eq ptr %12, null
  br i1 %.not3.i, label %15, label %13

13:                                               ; preds = %10
  %14 = tail call zeroext i1 %12(ptr noundef nonnull %3) #19
  br label %SDL_EnableScreenSaver_REAL.exit

15:                                               ; preds = %10
  %16 = tail call zeroext i1 (ptr, ...) @SDL_SetError_REAL(ptr noundef nonnull @.str.24) #19
  br label %SDL_EnableScreenSaver_REAL.exit

SDL_EnableScreenSaver_REAL.exit:                  ; preds = %4, %6, %13, %15
  %17 = load ptr, ptr @_this, align 8
  %18 = getelementptr inbounds nuw i8, ptr %17, i64 832
  %19 = load ptr, ptr %18, align 8
  %.not47 = icmp eq ptr %19, null
  br i1 %.not47, label %._crit_edge, label %.lr.ph

.lr.ph:                                           ; preds = %SDL_EnableScreenSaver_REAL.exit, %.lr.ph
  %20 = phi ptr [ %23, %.lr.ph ], [ %19, %SDL_EnableScreenSaver_REAL.exit ]
  tail call void @SDL_DestroyWindow_REAL(ptr noundef nonnull %20)
  %21 = load ptr, ptr @_this, align 8
  %22 = getelementptr inbounds nuw i8, ptr %21, i64 832
  %23 = load ptr, ptr %22, align 8
  %.not4 = icmp eq ptr %23, null
  br i1 %.not4, label %._crit_edge, label %.lr.ph, !llvm.loop !10

._crit_edge:                                      ; preds = %.lr.ph, %SDL_EnableScreenSaver_REAL.exit
  %.lcssa = phi ptr [ %17, %SDL_EnableScreenSaver_REAL.exit ], [ %21, %.lr.ph ]
  %24 = getelementptr inbounds nuw i8, ptr %.lcssa, i64 16
  %25 = load ptr, ptr %24, align 8
  tail call void %25(ptr noundef nonnull %.lcssa) #19
  %26 = load ptr, ptr @_this, align 8
  %27 = getelementptr inbounds nuw i8, ptr %26, i64 800
  %28 = load i32, ptr %27, align 8
  %.not58 = icmp eq i32 %28, 0
  br i1 %.not58, label %._crit_edge12, label %.lr.ph11.preheader

.lr.ph11.preheader:                               ; preds = %._crit_edge
  %29 = sext i32 %28 to i64
  br label %.lr.ph11

.lr.ph11:                                         ; preds = %.lr.ph11.preheader, %.lr.ph11
  %indvars.iv = phi i64 [ %29, %.lr.ph11.preheader ], [ %indvars.iv.next, %.lr.ph11 ]
  %indvars.iv.next = add nsw i64 %indvars.iv, -1
  %30 = load ptr, ptr @_this, align 8
  %31 = getelementptr inbounds nuw i8, ptr %30, i64 808
  %32 = load ptr, ptr %31, align 8
  %33 = getelementptr inbounds ptr, ptr %32, i64 %indvars.iv.next
  %34 = load ptr, ptr %33, align 8
  %35 = load i32, ptr %34, align 8
  tail call void @SDL_DelVideoDisplay(i32 noundef %35, i1 noundef zeroext false)
  %.not5 = icmp eq i64 %indvars.iv.next, 0
  br i1 %.not5, label %._crit_edge12.loopexit, label %.lr.ph11, !llvm.loop !11

._crit_edge12.loopexit:                           ; preds = %.lr.ph11
  %.pre = load ptr, ptr @_this, align 8
  br label %._crit_edge12

._crit_edge12:                                    ; preds = %._crit_edge12.loopexit, %._crit_edge
  %36 = phi ptr [ %.pre, %._crit_edge12.loopexit ], [ %26, %._crit_edge ]
  %37 = getelementptr inbounds nuw i8, ptr %36, i64 808
  %38 = load ptr, ptr %37, align 8
  tail call void @SDL_free_REAL(ptr noundef %38) #19
  %39 = load ptr, ptr @_this, align 8
  %40 = getelementptr inbounds nuw i8, ptr %39, i64 808
  store ptr null, ptr %40, align 8
  tail call void @SDL_CancelClipboardData(i32 noundef 0) #19
  %41 = load ptr, ptr @_this, align 8
  %42 = getelementptr inbounds nuw i8, ptr %41, i64 896
  %43 = load ptr, ptr %42, align 8
  %.not6 = icmp eq ptr %43, null
  br i1 %.not6, label %47, label %44

44:                                               ; preds = %._crit_edge12
  tail call void @SDL_free_REAL(ptr noundef nonnull %43) #19
  %45 = load ptr, ptr @_this, align 8
  %46 = getelementptr inbounds nuw i8, ptr %45, i64 896
  store ptr null, ptr %46, align 8
  br label %47

47:                                               ; preds = %44, %._crit_edge12
  %48 = phi ptr [ %45, %44 ], [ %41, %._crit_edge12 ]
  %49 = getelementptr inbounds nuw i8, ptr %48, i64 1688
  %50 = load ptr, ptr %49, align 8
  tail call void %50(ptr noundef nonnull %48) #19
  store ptr null, ptr @_this, align 8
  tail call void @SDL_QuitPen() #19
  br label %51

51:                                               ; preds = %0, %47
  ret void
}